target datalayout = "e-m:e-p270:32:32-p271:32:32-p272:64:64-i64:64-i128:128-f80:128-n8:16:32:64-S128"
target triple = "x86_64-pc-linux-gnu"

%struct.SDL_RenderViewState = type { i32, i32, %struct.SDL_Rect, %struct.SDL_Rect, %struct.SDL_Rect, %struct.SDL_Rect, i8, %struct.SDL_FPoint, i32, i32, i32, %struct.SDL_FRect, %struct.SDL_FRect, %struct.SDL_FPoint, %struct.SDL_FPoint, %struct.SDL_FPoint }
%struct.SDL_FRect = type { float, float, float, float }
%struct.SDL_FPoint = type { float, float }
%struct.SDL_FColor = type { float, float, float, float }
%struct.SDL_Rect = type { i32, i32, i32, i32 }
%struct.SDL_Texture = type { i32, i32, i32, i32, i32, float, float, i32, i32, i32, %struct.SDL_FColor, %struct.SDL_RenderViewState, ptr, ptr, ptr, ptr, i32, %struct.SDL_Rect, ptr, i32, i32, ptr, ptr, ptr }

@.str.2 = private unnamed_addr constant [26 x i8] c"Parameter '%s' is invalid\00", align 1
@.str.52 = private unnamed_addr constant [8 x i8] c"texture\00", align 1

; Function Attrs: nounwind uwtable
define hidden zeroext i1 @SDL_SetTextureAlphaModFloat_REAL(ptr noundef %0, float noundef %1) #0 {
  %3 = alloca i1, align 1
  %4 = alloca ptr, align 8
  %5 = alloca float, align 4
  store ptr %0, ptr %4, align 8
  store float %1, ptr %5, align 4
  %6 = load ptr, ptr %4, align 8
  %7 = call zeroext i1 @SDL_ObjectValid(ptr noundef %6, i32 noundef 3)
  br i1 %7, label %10, label %8

8:                                                ; preds = %2
  %9 = call zeroext i1 (ptr, ...) @SDL_SetError_REAL(ptr noundef @.str.2, ptr noundef @.str.52)
  store i1 false, ptr %3, align 1
  br label %26

10:                                               ; preds = %2
  %11 = load float, ptr %5, align 4
  %12 = load ptr, ptr %4, align 8
  %13 = getelementptr inbounds nuw %struct.SDL_Texture, ptr %12, i32 0, i32 10
  %14 = getelementptr inbounds nuw %struct.SDL_FColor, ptr %13, i32 0, i32 3
  store float %11, ptr %14, align 4
  %15 = load ptr, ptr %4, align 8
  %16 = getelementptr inbounds nuw %struct.SDL_Texture, ptr %15, i32 0, i32 13
  %17 = load ptr, ptr %16, align 8
  %18 = icmp ne ptr %17, null
  br i1 %18, label %19, label %25

19:                                               ; preds = %10
  %20 = load ptr, ptr %4, align 8
  %21 = getelementptr inbounds nuw %struct.SDL_Texture, ptr %20, i32 0, i32 13
  %22 = load ptr, ptr %21, align 8
  %23 = load float, ptr %5, align 4
  %24 = call zeroext i1 @SDL_SetTextureAlphaModFloat_REAL(ptr noundef %22, float noundef %23)
  store i1 %24, ptr %3, align 1
  br label %26

25:                                               ; preds = %10
  store i1 true, ptr %3, align 1
  br label %26

26:                                               ; preds = %25, %19, %8
  %27 = load i1, ptr %3, align 1
  ret i1 %27
}

; Function Attrs: nounwind uwtable
define hidden zeroext i1 @SDL_SetTextureAlphaMod_REAL(ptr noundef %0, i8 noundef zeroext %1) #0 {
  %3 = alloca ptr, align 8
  %4 = alloca i8, align 1
  %5 = alloca float, align 4
  store ptr %0, ptr %3, align 8
  store i8 %1, ptr %4, align 1
  call void @llvm.lifetime.start.p0(i64 4, ptr %5) #10
  %6 = load i8, ptr %4, align 1
  %7 = uitofp i8 %6 to float
  %8 = fdiv float %7, 2.550000e+02
  store float %8, ptr %5, align 4
  %9 = load ptr, ptr %3, align 8
  %10 = load float, ptr %5, align 4
  %11 = call zeroext i1 @SDL_SetTextureAlphaModFloat_REAL(ptr noundef %9, float noundef %10)
  call void @llvm.lifetime.end.p0(i64 4, ptr %5) #10
  ret i1 %11
}