; Function Attrs: nounwind uwtable
define hidden noundef zeroext i1 @SDL_SetTextureAlphaMod_REAL(ptr noundef %0, i8 noundef zeroext %1) local_unnamed_addr #0 {
  %3 = uitofp i8 %1 to float
  %4 = fdiv float %3, 2.550000e+02
  br label %tailrecurse.i

tailrecurse.i:                                    ; preds = %8, %2
  %.tr.i = phi ptr [ %0, %2 ], [ %11, %8 ]
  %5 = tail call zeroext i1 @SDL_ObjectValid(ptr noundef %.tr.i, i32 noundef 3) #15
  br i1 %5, label %8, label %6

6:                                                ; preds = %tailrecurse.i
  %7 = tail call zeroext i1 (ptr, ...) @SDL_SetError_REAL(ptr noundef nonnull @.str.2, ptr noundef nonnull @.str.52) #15
  br label %SDL_SetTextureAlphaModFloat_REAL.exit

8:                                                ; preds = %tailrecurse.i
  %9 = getelementptr inbounds nuw i8, ptr %.tr.i, i64 52
  store float %4, ptr %9, align 4
  %10 = getelementptr inbounds nuw i8, ptr %.tr.i, i64 216
  %11 = load ptr, ptr %10, align 8
  %.not.i = icmp eq ptr %11, null
  br i1 %.not.i, label %SDL_SetTextureAlphaModFloat_REAL.exit, label %tailrecurse.i

SDL_SetTextureAlphaModFloat_REAL.exit:            ; preds = %8, %6
  ret i1 %5
}